; Function Attrs: mustprogress nounwind uwtable
define dso_local noundef ptr @_ZN4node6crypto18GetClientHelloALPNERKSt10unique_ptrI6ssl_stNS_15FunctionDeleterIS2_XadL_Z8SSL_freeEEEEE(ptr nocapture noundef nonnull readonly align 8 dereferenceable(8) %ssl) local_unnamed_addr #3 {
entry:
  %buf = alloca ptr, align 8
  %rem = alloca i64, align 8
  %0 = load ptr, ptr %ssl, align 8
  %call1 = call i32 @SSL_client_hello_get0_ext(ptr noundef %0, i32 noundef 16, ptr noundef nonnull %buf, ptr noundef nonnull %rem) #17
  %tobool = icmp eq i32 %call1, 0
  %1 = load i64, ptr %rem, align 8
  %cmp = icmp ult i64 %1, 2
  %or.cond = select i1 %tobool, i1 true, i1 %cmp
  br i1 %or.cond, label %return, label %if.end

if.end:                                           ; preds = %entry
  %2 = load ptr, ptr %buf, align 8
  %3 = load i8, ptr %2, align 1
  %conv = zext i8 %3 to i64
  %shl = shl nuw nsw i64 %conv, 8
  %arrayidx2 = getelementptr inbounds i8, ptr %2, i64 1
  %4 = load i8, ptr %arrayidx2, align 1
  %conv3 = zext i8 %4 to i64
  %or = or disjoint i64 %shl, %conv3
  %add = add nuw nsw i64 %or, 2
  %cmp5.not = icmp eq i64 %add, %1
  %add.ptr = getelementptr inbounds i8, ptr %2, i64 3
  %spec.select = select i1 %cmp5.not, ptr %add.ptr, ptr null
  br label %return

return:                                           ; preds = %if.end, %entry
  %retval.0 = phi ptr [ null, %entry ], [ %spec.select, %if.end ]
  ret ptr %retval.0
}